(lp0
(lp1
S'<'
p2
aS'<'
p3
aS'<'
p4
aS'>'
p5
aS'v'
p6
aS'^'
p7
aS'v'
p8
aS'<'
p9
aS'>'
p10
aS'v'
p11
aa(lp12
S'v'
p13
aS'None'
p14
aS'<'
p15
aS'None'
p16
aS'None'
p17
aS'None'
p18
aS'None'
p19
aS'None'
p20
aS'None'
p21
aS'^'
p22
aa(lp23
S'v'
p24
aS'None'
p25
aS'v'
p26
aS'None'
p27
aS'<'
p28
aS'^'
p29
aS'>'
p30
aS'^'
p31
aS'None'
p32
aS'^'
p33
aa(lp34
S'v'
p35
aS'None'
p36
aS'v'
p37
aS'None'
p38
aS'v'
p39
aS'^'
p40
aS'<'
p41
aS'v'
p42
aS'None'
p43
aS'<'
p44
aa(lp45
S'>'
p46
aS'None'
p47
aS'>'
p48
aS'None'
p49
aS'v'
p50
aS'^'
p51
aS'^'
p52
aS'<'
p53
aS'None'
p54
aS'^'
p55
aa(lp56
S'<'
p57
aS'None'
p58
aS'>'
p59
aS'None'
p60
aS'v'
p61
aS'<'
p62
aS'<'
p63
aS'v'
p64
aS'None'
p65
aS'v'
p66
aa(lp67
S'v'
p68
aS'None'
p69
aS'<'
p70
aS'None'
p71
aS'^'
p72
aS'v'
p73
aS'^'
p74
aS'v'
p75
aS'<'
p76
aS'^'
p77
aa(lp78
S'^'
p79
aS'None'
p80
aS'>'
p81
aS'None'
p82
aS'>'
p83
aS'>'
p84
aS'v'
p85
aS'v'
p86
aS'None'
p87
aS'<'
p88
aa(lp89
S'<'
p90
aS'None'
p91
aS'>'
p92
aS'None'
p93
aS'None'
p94
aS'None'
p95
aS'None'
p96
aS'^'
p97
aS'None'
p98
aS'<'
p99
aa(lp100
S'^'
p101
aS'>'
p102
aS'>'
p103
aS'>'
p104
aS'v'
p105
aS'v'
p106
aS'<'
p107
aS'v'
p108
aS'^'
p109
aS'v'
p110
aa.