(lp0
(lp1
S'v'
p2
aS'^'
p3
aS'v'
p4
aS'>'
p5
aS'>'
p6
aS'>'
p7
aS'>'
p8
aS'^'
p9
aS'>'
p10
aS'v'
p11
aa(lp12
S'<'
p13
aS'None'
p14
aS'v'
p15
aS'None'
p16
aS'None'
p17
aS'None'
p18
aS'None'
p19
aS'None'
p20
aS'None'
p21
aS'^'
p22
aa(lp23
S'>'
p24
aS'None'
p25
aS'v'
p26
aS'None'
p27
aS'^'
p28
aS'v'
p29
aS'^'
p30
aS'v'
p31
aS'None'
p32
aS'>'
p33
aa(lp34
S'v'
p35
aS'None'
p36
aS'<'
p37
aS'None'
p38
aS'<'
p39
aS'>'
p40
aS'^'
p41
aS'<'
p42
aS'None'
p43
aS'^'
p44
aa(lp45
S'^'
p46
aS'None'
p47
aS'v'
p48
aS'None'
p49
aS'v'
p50
aS'<'
p51
aS'>'
p52
aS'v'
p53
aS'None'
p54
aS'<'
p55
aa(lp56
S'^'
p57
aS'None'
p58
aS'^'
p59
aS'None'
p60
aS'v'
p61
aS'v'
p62
aS'v'
p63
aS'v'
p64
aS'None'
p65
aS'^'
p66
aa(lp67
S'^'
p68
aS'None'
p69
aS'>'
p70
aS'None'
p71
aS'<'
p72
aS'v'
p73
aS'>'
p74
aS'>'
p75
aS'<'
p76
aS'v'
p77
aa(lp78
S'^'
p79
aS'None'
p80
aS'^'
p81
aS'None'
p82
aS'<'
p83
aS'<'
p84
aS'<'
p85
aS'<'
p86
aS'None'
p87
aS'v'
p88
aa(lp89
S'^'
p90
aS'None'
p91
aS'>'
p92
aS'None'
p93
aS'None'
p94
aS'None'
p95
aS'None'
p96
aS'<'
p97
aS'None'
p98
aS'v'
p99
aa(lp100
S'<'
p101
aS'>'
p102
aS'>'
p103
aS'>'
p104
aS'v'
p105
aS'v'
p106
aS'>'
p107
aS'^'
p108
aS'<'
p109
aS'>'
p110
aa.