(lp0
(lp1
S'>'
p2
aS'v'
p3
aS'<'
p4
aS'<'
p5
aS'v'
p6
aS'>'
p7
aS'v'
p8
aS'<'
p9
aS'<'
p10
aS'<'
p11
aa(lp12
S'<'
p13
aS'None'
p14
aS'>'
p15
aS'None'
p16
aS'None'
p17
aS'None'
p18
aS'None'
p19
aS'None'
p20
aS'None'
p21
aS'^'
p22
aa(lp23
S'v'
p24
aS'None'
p25
aS'v'
p26
aS'None'
p27
aS'>'
p28
aS'^'
p29
aS'<'
p30
aS'>'
p31
aS'None'
p32
aS'^'
p33
aa(lp34
S'^'
p35
aS'None'
p36
aS'v'
p37
aS'None'
p38
aS'v'
p39
aS'v'
p40
aS'v'
p41
aS'^'
p42
aS'None'
p43
aS'^'
p44
aa(lp45
S'>'
p46
aS'None'
p47
aS'v'
p48
aS'None'
p49
aS'<'
p50
aS'v'
p51
aS'^'
p52
aS'v'
p53
aS'None'
p54
aS'^'
p55
aa(lp56
S'<'
p57
aS'None'
p58
aS'v'
p59
aS'None'
p60
aS'<'
p61
aS'^'
p62
aS'>'
p63
aS'>'
p64
aS'None'
p65
aS'>'
p66
aa(lp67
S'>'
p68
aS'None'
p69
aS'<'
p70
aS'None'
p71
aS'<'
p72
aS'<'
p73
aS'v'
p74
aS'<'
p75
aS'<'
p76
aS'^'
p77
aa(lp78
S'>'
p79
aS'None'
p80
aS'<'
p81
aS'None'
p82
aS'>'
p83
aS'v'
p84
aS'>'
p85
aS'>'
p86
aS'None'
p87
aS'^'
p88
aa(lp89
S'>'
p90
aS'None'
p91
aS'>'
p92
aS'None'
p93
aS'None'
p94
aS'None'
p95
aS'None'
p96
aS'^'
p97
aS'None'
p98
aS'^'
p99
aa(lp100
S'<'
p101
aS'>'
p102
aS'>'
p103
aS'>'
p104
aS'>'
p105
aS'>'
p106
aS'v'
p107
aS'^'
p108
aS'>'
p109
aS'>'
p110
aa.